target datalayout = "e-m:e-p270:32:32-p271:32:32-p272:64:64-i64:64-i128:128-f80:128-n8:16:32:64-S128"
target triple = "x86_64-pc-linux-gnu"

@ff_h264_chroma422_dc_dequant_idct_8_c.x_offset = internal constant [2 x i8] c"\00\10", align 1

; Function Attrs: nounwind uwtable
define void @ff_h264_chroma422_dc_dequant_idct_8_c(ptr noundef %0, i32 noundef %1) #0 {
  %3 = alloca ptr, align 8
  %4 = alloca i32, align 4
  %5 = alloca i32, align 4
  %6 = alloca i32, align 4
  %7 = alloca i32, align 4
  %8 = alloca [8 x i32], align 16
  %9 = alloca ptr, align 8
  %10 = alloca i32, align 4
  %11 = alloca i32, align 4
  %12 = alloca i32, align 4
  %13 = alloca i32, align 4
  %14 = alloca i32, align 4
  store ptr %0, ptr %3, align 8, !tbaa !9
  store i32 %1, ptr %4, align 4, !tbaa !11
  call void @llvm.lifetime.start.p0(i64 4, ptr %5) #4
  store i32 32, ptr %5, align 4, !tbaa !11
  call void @llvm.lifetime.start.p0(i64 4, ptr %6) #4
  store i32 16, ptr %6, align 4, !tbaa !11
  call void @llvm.lifetime.start.p0(i64 4, ptr %7) #4
  call void @llvm.lifetime.start.p0(i64 32, ptr %8) #4
  call void @llvm.lifetime.start.p0(i64 8, ptr %9) #4
  %15 = load ptr, ptr %3, align 8, !tbaa !9
  store ptr %15, ptr %9, align 8, !tbaa !9
  store i32 0, ptr %7, align 4, !tbaa !11
  br label %16

16:                                               ; preds = %64, %2
  %17 = load i32, ptr %7, align 4, !tbaa !11
  %18 = icmp slt i32 %17, 4
  br i1 %18, label %19, label %67

19:                                               ; preds = %16
  %20 = load ptr, ptr %9, align 8, !tbaa !9
  %21 = load i32, ptr %7, align 4, !tbaa !11
  %22 = mul nsw i32 32, %21
  %23 = add nsw i32 %22, 0
  %24 = sext i32 %23 to i64
  %25 = getelementptr inbounds i16, ptr %20, i64 %24
  %26 = load i16, ptr %25, align 2, !tbaa !13
  %27 = sext i16 %26 to i32
  %28 = load ptr, ptr %9, align 8, !tbaa !9
  %29 = load i32, ptr %7, align 4, !tbaa !11
  %30 = mul nsw i32 32, %29
  %31 = add nsw i32 %30, 16
  %32 = sext i32 %31 to i64
  %33 = getelementptr inbounds i16, ptr %28, i64 %32
  %34 = load i16, ptr %33, align 2, !tbaa !13
  %35 = sext i16 %34 to i32
  %36 = add i32 %27, %35
  %37 = load i32, ptr %7, align 4, !tbaa !11
  %38 = mul nsw i32 2, %37
  %39 = add nsw i32 %38, 0
  %40 = sext i32 %39 to i64
  %41 = getelementptr inbounds [8 x i32], ptr %8, i64 0, i64 %40
  store i32 %36, ptr %41, align 4, !tbaa !11
  %42 = load ptr, ptr %9, align 8, !tbaa !9
  %43 = load i32, ptr %7, align 4, !tbaa !11
  %44 = mul nsw i32 32, %43
  %45 = add nsw i32 %44, 0
  %46 = sext i32 %45 to i64
  %47 = getelementptr inbounds i16, ptr %42, i64 %46
  %48 = load i16, ptr %47, align 2, !tbaa !13
  %49 = sext i16 %48 to i32
  %50 = load ptr, ptr %9, align 8, !tbaa !9
  %51 = load i32, ptr %7, align 4, !tbaa !11
  %52 = mul nsw i32 32, %51
  %53 = add nsw i32 %52, 16
  %54 = sext i32 %53 to i64
  %55 = getelementptr inbounds i16, ptr %50, i64 %54
  %56 = load i16, ptr %55, align 2, !tbaa !13
  %57 = sext i16 %56 to i32
  %58 = sub i32 %49, %57
  %59 = load i32, ptr %7, align 4, !tbaa !11
  %60 = mul nsw i32 2, %59
  %61 = add nsw i32 %60, 1
  %62 = sext i32 %61 to i64
  %63 = getelementptr inbounds [8 x i32], ptr %8, i64 0, i64 %62
  store i32 %58, ptr %63, align 4, !tbaa !11
  br label %64

64:                                               ; preds = %19
  %65 = load i32, ptr %7, align 4, !tbaa !11
  %66 = add nsw i32 %65, 1
  store i32 %66, ptr %7, align 4, !tbaa !11
  br label %16, !llvm.loop !41

67:                                               ; preds = %16
  store i32 0, ptr %7, align 4, !tbaa !11
  br label %68

68:                                               ; preds = %173, %67
  %69 = load i32, ptr %7, align 4, !tbaa !11
  %70 = icmp slt i32 %69, 2
  br i1 %70, label %71, label %176

71:                                               ; preds = %68
  call void @llvm.lifetime.start.p0(i64 4, ptr %10) #4
  %72 = load i32, ptr %7, align 4, !tbaa !11
  %73 = sext i32 %72 to i64
  %74 = getelementptr inbounds [2 x i8], ptr @ff_h264_chroma422_dc_dequant_idct_8_c.x_offset, i64 0, i64 %73
  %75 = load i8, ptr %74, align 1, !tbaa !17
  %76 = zext i8 %75 to i32
  store i32 %76, ptr %10, align 4, !tbaa !11
  call void @llvm.lifetime.start.p0(i64 4, ptr %11) #4
  %77 = load i32, ptr %7, align 4, !tbaa !11
  %78 = add nsw i32 0, %77
  %79 = sext i32 %78 to i64
  %80 = getelementptr inbounds [8 x i32], ptr %8, i64 0, i64 %79
  %81 = load i32, ptr %80, align 4, !tbaa !11
  %82 = load i32, ptr %7, align 4, !tbaa !11
  %83 = add nsw i32 4, %82
  %84 = sext i32 %83 to i64
  %85 = getelementptr inbounds [8 x i32], ptr %8, i64 0, i64 %84
  %86 = load i32, ptr %85, align 4, !tbaa !11
  %87 = add i32 %81, %86
  store i32 %87, ptr %11, align 4, !tbaa !11
  call void @llvm.lifetime.start.p0(i64 4, ptr %12) #4
  %88 = load i32, ptr %7, align 4, !tbaa !11
  %89 = add nsw i32 0, %88
  %90 = sext i32 %89 to i64
  %91 = getelementptr inbounds [8 x i32], ptr %8, i64 0, i64 %90
  %92 = load i32, ptr %91, align 4, !tbaa !11
  %93 = load i32, ptr %7, align 4, !tbaa !11
  %94 = add nsw i32 4, %93
  %95 = sext i32 %94 to i64
  %96 = getelementptr inbounds [8 x i32], ptr %8, i64 0, i64 %95
  %97 = load i32, ptr %96, align 4, !tbaa !11
  %98 = sub i32 %92, %97
  store i32 %98, ptr %12, align 4, !tbaa !11
  call void @llvm.lifetime.start.p0(i64 4, ptr %13) #4
  %99 = load i32, ptr %7, align 4, !tbaa !11
  %100 = add nsw i32 2, %99
  %101 = sext i32 %100 to i64
  %102 = getelementptr inbounds [8 x i32], ptr %8, i64 0, i64 %101
  %103 = load i32, ptr %102, align 4, !tbaa !11
  %104 = load i32, ptr %7, align 4, !tbaa !11
  %105 = add nsw i32 6, %104
  %106 = sext i32 %105 to i64
  %107 = getelementptr inbounds [8 x i32], ptr %8, i64 0, i64 %106
  %108 = load i32, ptr %107, align 4, !tbaa !11
  %109 = sub i32 %103, %108
  store i32 %109, ptr %13, align 4, !tbaa !11
  call void @llvm.lifetime.start.p0(i64 4, ptr %14) #4
  %110 = load i32, ptr %7, align 4, !tbaa !11
  %111 = add nsw i32 2, %110
  %112 = sext i32 %111 to i64
  %113 = getelementptr inbounds [8 x i32], ptr %8, i64 0, i64 %112
  %114 = load i32, ptr %113, align 4, !tbaa !11
  %115 = load i32, ptr %7, align 4, !tbaa !11
  %116 = add nsw i32 6, %115
  %117 = sext i32 %116 to i64
  %118 = getelementptr inbounds [8 x i32], ptr %8, i64 0, i64 %117
  %119 = load i32, ptr %118, align 4, !tbaa !11
  %120 = add i32 %114, %119
  store i32 %120, ptr %14, align 4, !tbaa !11
  %121 = load i32, ptr %11, align 4, !tbaa !11
  %122 = load i32, ptr %14, align 4, !tbaa !11
  %123 = add i32 %121, %122
  %124 = load i32, ptr %4, align 4, !tbaa !11
  %125 = mul i32 %123, %124
  %126 = add i32 %125, 128
  %127 = ashr i32 %126, 8
  %128 = trunc i32 %127 to i16
  %129 = load ptr, ptr %9, align 8, !tbaa !9
  %130 = load i32, ptr %10, align 4, !tbaa !11
  %131 = add nsw i32 0, %130
  %132 = sext i32 %131 to i64
  %133 = getelementptr inbounds i16, ptr %129, i64 %132
  store i16 %128, ptr %133, align 2, !tbaa !13
  %134 = load i32, ptr %12, align 4, !tbaa !11
  %135 = load i32, ptr %13, align 4, !tbaa !11
  %136 = add i32 %134, %135
  %137 = load i32, ptr %4, align 4, !tbaa !11
  %138 = mul i32 %136, %137
  %139 = add i32 %138, 128
  %140 = ashr i32 %139, 8
  %141 = trunc i32 %140 to i16
  %142 = load ptr, ptr %9, align 8, !tbaa !9
  %143 = load i32, ptr %10, align 4, !tbaa !11
  %144 = add nsw i32 32, %143
  %145 = sext i32 %144 to i64
  %146 = getelementptr inbounds i16, ptr %142, i64 %145
  store i16 %141, ptr %146, align 2, !tbaa !13
  %147 = load i32, ptr %12, align 4, !tbaa !11
  %148 = load i32, ptr %13, align 4, !tbaa !11
  %149 = sub i32 %147, %148
  %150 = load i32, ptr %4, align 4, !tbaa !11
  %151 = mul i32 %149, %150
  %152 = add i32 %151, 128
  %153 = ashr i32 %152, 8
  %154 = trunc i32 %153 to i16
  %155 = load ptr, ptr %9, align 8, !tbaa !9
  %156 = load i32, ptr %10, align 4, !tbaa !11
  %157 = add nsw i32 64, %156
  %158 = sext i32 %157 to i64
  %159 = getelementptr inbounds i16, ptr %155, i64 %158
  store i16 %154, ptr %159, align 2, !tbaa !13
  %160 = load i32, ptr %11, align 4, !tbaa !11
  %161 = load i32, ptr %14, align 4, !tbaa !11
  %162 = sub i32 %160, %161
  %163 = load i32, ptr %4, align 4, !tbaa !11
  %164 = mul i32 %162, %163
  %165 = add i32 %164, 128
  %166 = ashr i32 %165, 8
  %167 = trunc i32 %166 to i16
  %168 = load ptr, ptr %9, align 8, !tbaa !9
  %169 = load i32, ptr %10, align 4, !tbaa !11
  %170 = add nsw i32 96, %169
  %171 = sext i32 %170 to i64
  %172 = getelementptr inbounds i16, ptr %168, i64 %171
  store i16 %167, ptr %172, align 2, !tbaa !13
  call void @llvm.lifetime.end.p0(i64 4, ptr %14) #4
  call void @llvm.lifetime.end.p0(i64 4, ptr %13) #4
  call void @llvm.lifetime.end.p0(i64 4, ptr %12) #4
  call void @llvm.lifetime.end.p0(i64 4, ptr %11) #4
  call void @llvm.lifetime.end.p0(i64 4, ptr %10) #4
  br label %173

173:                                              ; preds = %71
  %174 = load i32, ptr %7, align 4, !tbaa !11
  %175 = add nsw i32 %174, 1
  store i32 %175, ptr %7, align 4, !tbaa !11
  br label %68, !llvm.loop !42

176:                                              ; preds = %68
  call void @llvm.lifetime.end.p0(i64 8, ptr %9) #4
  call void @llvm.lifetime.end.p0(i64 32, ptr %8) #4
  call void @llvm.lifetime.end.p0(i64 4, ptr %7) #4
  call void @llvm.lifetime.end.p0(i64 4, ptr %6) #4
  call void @llvm.lifetime.end.p0(i64 4, ptr %5) #4
  ret void
}