; Function Attrs: nofree norecurse nosync nounwind memory(argmem: readwrite) uwtable
define void @ff_h264_chroma422_dc_dequant_idct_8_c(ptr noundef captures(none) %0, i32 noundef %1) local_unnamed_addr #0 {
  %3 = alloca [8 x i32], align 16
  call void @llvm.lifetime.start.p0(i64 32, ptr nonnull %3) #6
  %indvars.iv46.sroa.gep = getelementptr inbounds nuw i8, ptr %3, i64 4
  br label %4

4:                                                ; preds = %2, %4
  %indvars.iv = phi i64 [ 0, %2 ], [ %indvars.iv.next, %4 ]
  %.idx = shl nuw nsw i64 %indvars.iv, 6
  %5 = getelementptr inbounds nuw i8, ptr %0, i64 %.idx
  %6 = load i16, ptr %5, align 2, !tbaa !4
  %7 = sext i16 %6 to i32
  %8 = getelementptr inbounds nuw i8, ptr %5, i64 32
  %9 = load i16, ptr %8, align 2, !tbaa !4
  %10 = sext i16 %9 to i32
  %11 = add nsw i32 %10, %7
  %12 = shl nuw nsw i64 %indvars.iv, 1
  %13 = getelementptr inbounds nuw [8 x i32], ptr %3, i64 0, i64 %12
  store i32 %11, ptr %13, align 8, !tbaa !18
  %14 = sub nsw i32 %7, %10
  %15 = or disjoint i64 %12, 1
  %16 = getelementptr inbounds nuw [8 x i32], ptr %3, i64 0, i64 %15
  store i32 %14, ptr %16, align 4, !tbaa !18
  %indvars.iv.next = add nuw nsw i64 %indvars.iv, 1
  %exitcond.not = icmp eq i64 %indvars.iv.next, 4
  br i1 %exitcond.not, label %.preheader, label %4, !llvm.loop !34

.preheader:                                       ; preds = %4, %.preheader
  %17 = phi i1 [ false, %.preheader ], [ true, %4 ]
  %indvars.iv46.sroa.phi = phi ptr [ %indvars.iv46.sroa.gep, %.preheader ], [ %3, %4 ]
  %indvars.iv46 = phi i64 [ 1, %.preheader ], [ 0, %4 ]
  %18 = getelementptr inbounds nuw [2 x i8], ptr @ff_h264_chroma422_dc_dequant_idct_14_c.x_offset, i64 0, i64 %indvars.iv46
  %19 = load i8, ptr %18, align 1, !tbaa !10
  %20 = zext i8 %19 to i64
  %21 = load i32, ptr %indvars.iv46.sroa.phi, align 4, !tbaa !18
  %22 = or disjoint i64 %indvars.iv46, 4
  %23 = getelementptr inbounds nuw [8 x i32], ptr %3, i64 0, i64 %22
  %24 = load i32, ptr %23, align 4, !tbaa !18
  %25 = add i32 %24, %21
  %26 = sub i32 %21, %24
  %27 = or disjoint i64 %indvars.iv46, 2
  %28 = getelementptr inbounds nuw [8 x i32], ptr %3, i64 0, i64 %27
  %29 = load i32, ptr %28, align 4, !tbaa !18
  %30 = or disjoint i64 %indvars.iv46, 6
  %31 = getelementptr inbounds nuw [8 x i32], ptr %3, i64 0, i64 %30
  %32 = load i32, ptr %31, align 4, !tbaa !18
  %33 = sub i32 %29, %32
  %34 = add i32 %32, %29
  %35 = add i32 %34, %25
  %36 = mul i32 %35, %1
  %37 = add i32 %36, 128
  %38 = lshr i32 %37, 8
  %39 = trunc i32 %38 to i16
  %40 = getelementptr inbounds nuw i16, ptr %0, i64 %20
  store i16 %39, ptr %40, align 2, !tbaa !4
  %41 = add i32 %33, %26
  %42 = mul i32 %41, %1
  %43 = add i32 %42, 128
  %44 = lshr i32 %43, 8
  %45 = trunc i32 %44 to i16
  %46 = getelementptr inbounds nuw i8, ptr %40, i64 64
  store i16 %45, ptr %46, align 2, !tbaa !4
  %47 = sub i32 %26, %33
  %48 = mul i32 %47, %1
  %49 = add i32 %48, 128
  %50 = lshr i32 %49, 8
  %51 = trunc i32 %50 to i16
  %52 = getelementptr inbounds nuw i8, ptr %40, i64 128
  store i16 %51, ptr %52, align 2, !tbaa !4
  %53 = sub i32 %25, %34
  %54 = mul i32 %53, %1
  %55 = add i32 %54, 128
  %56 = lshr i32 %55, 8
  %57 = trunc i32 %56 to i16
  %58 = getelementptr inbounds nuw i8, ptr %40, i64 192
  store i16 %57, ptr %58, align 2, !tbaa !4
  br i1 %17, label %.preheader, label %59, !llvm.loop !35

59:                                               ; preds = %.preheader
  call void @llvm.lifetime.end.p0(i64 32, ptr nonnull %3) #6
  ret void
}